; Function Attrs: nofree nosync nounwind memory(readwrite, inaccessiblemem: none) uwtable
define i32 @Hop_ConeCountAndMark_rec(ptr noundef captures(none) %0) local_unnamed_addr #2 {
  %2 = getelementptr i8, ptr %0, i64 32
  %.val = load i32, ptr %2, align 8
  %3 = and i32 %.val, 22
  %or.cond = icmp eq i32 %3, 4
  br i1 %or.cond, label %4, label %common.ret10

common.ret10:                                     ; preds = %1, %4
  %common.ret10.op = phi i32 [ %16, %4 ], [ 0, %1 ]
  ret i32 %common.ret10.op

4:                                                ; preds = %1
  %5 = getelementptr i8, ptr %0, i64 16
  %.val8 = load ptr, ptr %5, align 8, !tbaa !3
  %6 = ptrtoint ptr %.val8 to i64
  %7 = and i64 %6, -2
  %8 = inttoptr i64 %7 to ptr
  %9 = tail call i32 @Hop_ConeCountAndMark_rec(ptr noundef %8)
  %10 = add nsw i32 %9, 1
  %11 = getelementptr i8, ptr %0, i64 24
  %.val9 = load ptr, ptr %11, align 8, !tbaa !10
  %12 = ptrtoint ptr %.val9 to i64
  %13 = and i64 %12, -2
  %14 = inttoptr i64 %13 to ptr
  %15 = tail call i32 @Hop_ConeCountAndMark_rec(ptr noundef %14)
  %16 = add nsw i32 %10, %15
  %17 = load i32, ptr %2, align 8
  %18 = or i32 %17, 16
  store i32 %18, ptr %2, align 8
  br label %common.ret10
}